target datalayout = "e-m:e-p270:32:32-p271:32:32-p272:64:64-i64:64-i128:128-f80:128-n8:16:32:64-S128"
target triple = "x86_64-pc-linux-gnu"

%class.Metadata = type { ptr }
%class.AccessFlags = type { i32 }
%class.Method = type { %class.Metadata, ptr, ptr, ptr, ptr, %class.AccessFlags, i32, %class.MethodFlags, i16, %class.JfrTraceFlag, ptr, ptr, ptr, ptr }
%class.MethodFlags = type { i32 }
%class.JfrTraceFlag = type { i16 }
%class.ConstMethod = type <{ i64, ptr, ptr, i32, %class.ConstMethodFlags, i8, i8, i16, i16, i16, i16, i16, i16, i16, i16, i16, [4 x i8] }>
%class.ConstMethodFlags = type { i32 }

; Function Attrs: mustprogress nounwind uwtable
define linkonce_odr hidden noundef zeroext i16 @_ZNK11ConstMethod9code_sizeEv(ptr noundef nonnull align 8 dereferenceable(52) %0) #1 comdat align 2 {
  %2 = alloca ptr, align 8
  store ptr %0, ptr %2, align 8
  %3 = load ptr, ptr %2, align 8
  %4 = getelementptr inbounds %class.ConstMethod, ptr %3, i32 0, i32 7
  %5 = load i16, ptr %4, align 2
  ret i16 %5
}

; Function Attrs: mustprogress nounwind uwtable
define linkonce_odr hidden noundef ptr @_ZNK6Method11constMethodEv(ptr noundef nonnull align 8 dereferenceable(88) %0) #1 comdat align 2 {
  %2 = alloca ptr, align 8
  store ptr %0, ptr %2, align 8
  %3 = load ptr, ptr %2, align 8
  %4 = getelementptr inbounds %class.Method, ptr %3, i32 0, i32 1
  %5 = load ptr, ptr %4, align 8
  ret ptr %5
}

; Function Attrs: mustprogress nounwind uwtable
define linkonce_odr hidden noundef zeroext i16 @_ZNK6Method9code_sizeEv(ptr noundef nonnull align 8 dereferenceable(88) %0) #1 comdat align 2 {
  %2 = alloca ptr, align 8
  store ptr %0, ptr %2, align 8
  %3 = load ptr, ptr %2, align 8
  %4 = call noundef ptr @_ZNK6Method11constMethodEv(ptr noundef nonnull align 8 dereferenceable(88) %3)
  %5 = call noundef zeroext i16 @_ZNK11ConstMethod9code_sizeEv(ptr noundef nonnull align 8 dereferenceable(52) %4)
  ret i16 %5
}

; Function Attrs: mustprogress nounwind uwtable
define hidden noundef i32 @_ZNK6Method12validate_bciEi(ptr noundef nonnull align 8 dereferenceable(88) %0, i32 noundef %1) #1 align 2 {
  %3 = alloca ptr, align 8
  %4 = alloca i32, align 4
  store ptr %0, ptr %3, align 8
  store i32 %1, ptr %4, align 4
  %5 = load ptr, ptr %3, align 8
  %6 = load i32, ptr %4, align 4
  %7 = icmp eq i32 %6, 0
  br i1 %7, label %13, label %8

8:                                                ; preds = %2
  %9 = load i32, ptr %4, align 4
  %10 = call noundef zeroext i16 @_ZNK6Method9code_sizeEv(ptr noundef nonnull align 8 dereferenceable(88) %5)
  %11 = zext i16 %10 to i32
  %12 = icmp slt i32 %9, %11
  br i1 %12, label %13, label %15

13:                                               ; preds = %8, %2
  %14 = load i32, ptr %4, align 4
  br label %16

15:                                               ; preds = %8
  br label %16

16:                                               ; preds = %15, %13
  %17 = phi i32 [ %14, %13 ], [ -1, %15 ]
  ret i32 %17
}