; Function Attrs: mustprogress nofree norecurse nosync nounwind willreturn memory(read, inaccessiblemem: none) uwtable
define hidden noundef i32 @_ZNK6Method12validate_bciEi(ptr nocapture noundef nonnull readonly align 8 dereferenceable(88) %0, i32 noundef %1) local_unnamed_addr #7 align 2 {
  %3 = icmp eq i32 %1, 0
  br i1 %3, label %11, label %4

4:                                                ; preds = %2
  %5 = getelementptr inbounds i8, ptr %0, i64 8
  %6 = load ptr, ptr %5, align 8
  %7 = getelementptr inbounds i8, ptr %6, i64 34
  %8 = load i16, ptr %7, align 2
  %9 = zext i16 %8 to i32
  %10 = icmp sgt i32 %9, %1
  br i1 %10, label %11, label %12

11:                                               ; preds = %4, %2
  br label %12

12:                                               ; preds = %4, %11
  %13 = phi i32 [ %1, %11 ], [ -1, %4 ]
  ret i32 %13
}